
firmware.o:     file format elf32-littleriscv


Disassembly of section .text:

00000000 <_c2i>:
   0:	00851513          	slli	a0,a0,0x8
   4:	00b56533          	or	a0,a0,a1
   8:	00851513          	slli	a0,a0,0x8
   c:	00c56633          	or	a2,a0,a2
  10:	00861613          	slli	a2,a2,0x8
  14:	00d66533          	or	a0,a2,a3
  18:	00008067          	ret

0000001c <_i2c>:
  1c:	00050793          	mv	a5,a0
  20:	00058c63          	beqz	a1,38 <.L3>
  24:	00100713          	li	a4,1
  28:	00e58e63          	beq	a1,a4,44 <.L8>
  2c:	00200713          	li	a4,2
  30:	41855513          	srai	a0,a0,0x18
  34:	00e58463          	beq	a1,a4,3c <.L9>

00000038 <.L3>:
  38:	00008067          	ret

0000003c <.L9>:
  3c:	4107d513          	srai	a0,a5,0x10
  40:	00008067          	ret

00000044 <.L8>:
  44:	40855513          	srai	a0,a0,0x8
  48:	00008067          	ret

0000004c <cl>:
  4c:	100017b7          	lui	a5,0x10001
  50:	82a7a623          	sw	a0,-2004(a5) # 1000082c <read_spi+0x10000734>
  54:	82b7aa23          	sw	a1,-1996(a5)
  58:	00100713          	li	a4,1
  5c:	80e7ae23          	sw	a4,-2020(a5)
  60:	81c7a783          	lw	a5,-2020(a5)
  64:	10001737          	lui	a4,0x10001
  68:	4017d793          	srai	a5,a5,0x1
  6c:	0017f793          	andi	a5,a5,1
  70:	00079863          	bnez	a5,80 <.L12>

00000074 <.L11>:
  74:	81c72783          	lw	a5,-2020(a4) # 1000081c <read_spi+0x10000724>
  78:	0027f793          	andi	a5,a5,2
  7c:	fe078ce3          	beqz	a5,74 <.L11>

00000080 <.L12>:
  80:	100017b7          	lui	a5,0x10001
  84:	83c7a503          	lw	a0,-1988(a5) # 1000083c <read_spi+0x10000744>
  88:	00008067          	ret

0000008c <write_led>:
  8c:	100007b7          	lui	a5,0x10000
  90:	00a7a023          	sw	a0,0(a5) # 10000000 <read_spi+0xfffff08>
  94:	00008067          	ret

00000098 <read_sw>:
  98:	100007b7          	lui	a5,0x10000
  9c:	0007a503          	lw	a0,0(a5) # 10000000 <read_spi+0xfffff08>
  a0:	00008067          	ret

000000a4 <write_uart>:
  a4:	100007b7          	lui	a5,0x10000
  a8:	00a7ac23          	sw	a0,24(a5) # 10000018 <read_spi+0xfffff20>
  ac:	00008067          	ret

000000b0 <read_uart>:
  b0:	100007b7          	lui	a5,0x10000
  b4:	0187a503          	lw	a0,24(a5) # 10000018 <read_spi+0xfffff20>
  b8:	00008067          	ret

000000bc <write_i2c>:
  bc:	00251513          	slli	a0,a0,0x2
  c0:	100007b7          	lui	a5,0x10000
  c4:	00a787b3          	add	a5,a5,a0
  c8:	00b7ae23          	sw	a1,28(a5) # 1000001c <read_spi+0xfffff24>
  cc:	00008067          	ret

000000d0 <read_i2c>:
  d0:	00251513          	slli	a0,a0,0x2
  d4:	100007b7          	lui	a5,0x10000
  d8:	00a787b3          	add	a5,a5,a0
  dc:	01c7a503          	lw	a0,28(a5) # 1000001c <read_spi+0xfffff24>
  e0:	00008067          	ret

000000e4 <write_spi>:
  e4:	00251513          	slli	a0,a0,0x2
  e8:	100007b7          	lui	a5,0x10000
  ec:	00a787b3          	add	a5,a5,a0
  f0:	40b7ae23          	sw	a1,1052(a5) # 1000041c <read_spi+0x10000324>
  f4:	00008067          	ret

000000f8 <read_spi>:
  f8:	00251513          	slli	a0,a0,0x2
  fc:	100007b7          	lui	a5,0x10000
 100:	00a787b3          	add	a5,a5,a0
 104:	41c7a503          	lw	a0,1052(a5) # 1000041c <read_spi+0x10000324>
 108:	00008067          	ret

Disassembly of section .text.startup:

00000000 <main>:
   0:	10000737          	lui	a4,0x10000
   4:	00200793          	li	a5,2

00000008 <.L27>:
   8:	00f72023          	sw	a5,0(a4) # 10000000 <read_spi+0xfffff08>
   c:	00f72023          	sw	a5,0(a4)
  10:	ff9ff06f          	j	8 <.L27>
